target datalayout = "e-m:e-p270:32:32-p271:32:32-p272:64:64-i64:64-i128:128-f80:128-n8:16:32:64-S128"
target triple = "x86_64-pc-linux-gnu"

%struct.AVCodecContext = type { ptr, i32, i32, ptr, i32, i32, ptr, ptr, ptr, i64, i32, i32, ptr, i32, %struct.AVRational, %struct.AVRational, %struct.AVRational, i32, i32, i32, i32, i32, %struct.AVRational, i32, i32, i32, i32, i32, i32, i32, i32, i32, i32, i32, ptr, ptr, i32, float, float, float, float, float, float, float, float, float, i32, i32, i32, i32, i32, i32, i32, i32, i32, i32, i32, i32, ptr, ptr, ptr, i32, i32, i32, i32, i32, i32, i32, i32, i32, i32, %struct.AVChannelLayout, i32, i32, i32, i32, i32, i32, i32, i32, ptr, i32, i32, i32, float, float, i32, i32, i32, i32, i32, ptr, i64, i64, float, float, i32, i32, ptr, ptr, i32, i32, i32, i32, i32, ptr, ptr, ptr, ptr, i32, i32, [8 x i64], i32, i32, i32, i32, i32, i32, i32, ptr, ptr, i32, i32, i32, i32, i32, i32, i32, i32, i32, i32, ptr, ptr, i32, i32, ptr, ptr, ptr, ptr, i32, i32, i64, i32, i32, i64, ptr, i64, ptr, i32, ptr, i32 }
%struct.AVRational = type { i32, i32 }
%struct.AVChannelLayout = type { i32, i32, %union.anon.0, ptr }
%union.anon.0 = type { i64 }
%struct.BinkContext = type { ptr, %struct.BlockDSPContext, ptr, %struct.BinkDSPContext, ptr, i32, i32, i32, i32, [10 x %struct.Bundle], [16 x %struct.Tree], i32 }
%struct.BlockDSPContext = type { ptr, ptr, [2 x ptr] }
%struct.BinkDSPContext = type { ptr, ptr, ptr, ptr }
%struct.Bundle = type { i32, %struct.Tree, ptr, ptr, ptr, ptr }
%struct.Tree = type { i32, [16 x i8] }

; Function Attrs: cold nounwind optsize uwtable
define internal i32 @init_bundles(ptr noundef %0) #0 {
  %2 = alloca i32, align 4
  %3 = alloca ptr, align 8
  %4 = alloca i32, align 4
  %5 = alloca i32, align 4
  %6 = alloca i32, align 4
  %7 = alloca ptr, align 8
  %8 = alloca i32, align 4
  %9 = alloca i32, align 4
  store ptr %0, ptr %3, align 8, !tbaa !29
  call void @llvm.lifetime.start.p0(i64 4, ptr %4) #10
  call void @llvm.lifetime.start.p0(i64 4, ptr %5) #10
  call void @llvm.lifetime.start.p0(i64 4, ptr %6) #10
  call void @llvm.lifetime.start.p0(i64 8, ptr %7) #10
  call void @llvm.lifetime.start.p0(i64 4, ptr %8) #10
  %10 = load ptr, ptr %3, align 8, !tbaa !29
  %11 = getelementptr inbounds nuw %struct.BinkContext, ptr %10, i32 0, i32 0
  %12 = load ptr, ptr %11, align 8, !tbaa !43
  %13 = getelementptr inbounds nuw %struct.AVCodecContext, ptr %12, i32 0, i32 18
  %14 = load i32, ptr %13, align 8, !tbaa !44
  %15 = add nsw i32 %14, 7
  %16 = ashr i32 %15, 3
  store i32 %16, ptr %4, align 4, !tbaa !40
  %17 = load ptr, ptr %3, align 8, !tbaa !29
  %18 = getelementptr inbounds nuw %struct.BinkContext, ptr %17, i32 0, i32 0
  %19 = load ptr, ptr %18, align 8, !tbaa !43
  %20 = getelementptr inbounds nuw %struct.AVCodecContext, ptr %19, i32 0, i32 19
  %21 = load i32, ptr %20, align 4, !tbaa !45
  %22 = add nsw i32 %21, 7
  %23 = ashr i32 %22, 3
  store i32 %23, ptr %5, align 4, !tbaa !40
  %24 = load i32, ptr %4, align 4, !tbaa !40
  %25 = load i32, ptr %5, align 4, !tbaa !40
  %26 = mul nsw i32 %24, %25
  store i32 %26, ptr %6, align 4, !tbaa !40
  %27 = load i32, ptr %6, align 4, !tbaa !40
  %28 = sext i32 %27 to i64
  %29 = call noalias ptr @av_calloc(i64 noundef %28, i64 noundef 640)
  store ptr %29, ptr %7, align 8, !tbaa !62
  %30 = load ptr, ptr %7, align 8, !tbaa !62
  %31 = icmp ne ptr %30, null
  br i1 %31, label %33, label %32

32:                                               ; preds = %1
  store i32 -12, ptr %2, align 4
  store i32 1, ptr %9, align 4
  br label %61

33:                                               ; preds = %1
  store i32 0, ptr %8, align 4, !tbaa !40
  br label %34

34:                                               ; preds = %57, %33
  %35 = load i32, ptr %8, align 4, !tbaa !40
  %36 = icmp slt i32 %35, 10
  br i1 %36, label %37, label %60

37:                                               ; preds = %34
  %38 = load ptr, ptr %7, align 8, !tbaa !62
  %39 = load ptr, ptr %3, align 8, !tbaa !29
  %40 = getelementptr inbounds nuw %struct.BinkContext, ptr %39, i32 0, i32 9
  %41 = load i32, ptr %8, align 4, !tbaa !40
  %42 = sext i32 %41 to i64
  %43 = getelementptr inbounds [10 x %struct.Bundle], ptr %40, i64 0, i64 %42
  %44 = getelementptr inbounds nuw %struct.Bundle, ptr %43, i32 0, i32 2
  store ptr %38, ptr %44, align 8, !tbaa !63
  %45 = load i32, ptr %6, align 4, !tbaa !40
  %46 = mul nsw i32 %45, 64
  %47 = load ptr, ptr %7, align 8, !tbaa !62
  %48 = sext i32 %46 to i64
  %49 = getelementptr inbounds i8, ptr %47, i64 %48
  store ptr %49, ptr %7, align 8, !tbaa !62
  %50 = load ptr, ptr %7, align 8, !tbaa !62
  %51 = load ptr, ptr %3, align 8, !tbaa !29
  %52 = getelementptr inbounds nuw %struct.BinkContext, ptr %51, i32 0, i32 9
  %53 = load i32, ptr %8, align 4, !tbaa !40
  %54 = sext i32 %53 to i64
  %55 = getelementptr inbounds [10 x %struct.Bundle], ptr %52, i64 0, i64 %54
  %56 = getelementptr inbounds nuw %struct.Bundle, ptr %55, i32 0, i32 3
  store ptr %50, ptr %56, align 8, !tbaa !66
  br label %57

57:                                               ; preds = %37
  %58 = load i32, ptr %8, align 4, !tbaa !40
  %59 = add nsw i32 %58, 1
  store i32 %59, ptr %8, align 4, !tbaa !40
  br label %34, !llvm.loop !67

60:                                               ; preds = %34
  store i32 0, ptr %2, align 4
  store i32 1, ptr %9, align 4
  br label %61

61:                                               ; preds = %60, %32
  call void @llvm.lifetime.end.p0(i64 4, ptr %8) #10
  call void @llvm.lifetime.end.p0(i64 8, ptr %7) #10
  call void @llvm.lifetime.end.p0(i64 4, ptr %6) #10
  call void @llvm.lifetime.end.p0(i64 4, ptr %5) #10
  call void @llvm.lifetime.end.p0(i64 4, ptr %4) #10
  %62 = load i32, ptr %2, align 4
  ret i32 %62
}