; Function Attrs: cold nounwind optsize uwtable
define internal fastcc range(i32 -12, 1) i32 @init_bundles(ptr noundef captures(none) %0) unnamed_addr #0 {
  %2 = load ptr, ptr %0, align 8, !tbaa !39
  %3 = getelementptr inbounds nuw i8, ptr %2, i64 112
  %4 = load i32, ptr %3, align 8, !tbaa !40
  %5 = add nsw i32 %4, 7
  %6 = ashr i32 %5, 3
  %7 = getelementptr inbounds nuw i8, ptr %2, i64 116
  %8 = load i32, ptr %7, align 4, !tbaa !41
  %9 = add nsw i32 %8, 7
  %10 = ashr i32 %9, 3
  %11 = mul nsw i32 %10, %6
  %12 = sext i32 %11 to i64
  %13 = tail call noalias ptr @av_calloc(i64 noundef %12, i64 noundef 640) #11
  %.not = icmp eq ptr %13, null
  br i1 %.not, label %.loopexit, label %.preheader

.preheader:                                       ; preds = %1
  %14 = getelementptr inbounds nuw i8, ptr %0, i64 104
  %15 = shl nsw i32 %11, 6
  %16 = sext i32 %15 to i64
  br label %17

17:                                               ; preds = %.preheader, %17
  %indvars.iv = phi i64 [ 0, %.preheader ], [ %indvars.iv.next, %17 ]
  %.01619 = phi ptr [ %13, %.preheader ], [ %20, %17 ]
  %18 = getelementptr inbounds nuw [10 x %struct.Bundle], ptr %14, i64 0, i64 %indvars.iv
  %19 = getelementptr inbounds nuw i8, ptr %18, i64 24
  store ptr %.01619, ptr %19, align 8, !tbaa !59
  %20 = getelementptr inbounds i8, ptr %.01619, i64 %16
  %21 = getelementptr inbounds nuw i8, ptr %18, i64 32
  store ptr %20, ptr %21, align 8, !tbaa !69
  %indvars.iv.next = add nuw nsw i64 %indvars.iv, 1
  %exitcond.not = icmp eq i64 %indvars.iv.next, 10
  br i1 %exitcond.not, label %.loopexit, label %17, !llvm.loop !94

.loopexit:                                        ; preds = %17, %1
  %.017 = phi i32 [ -12, %1 ], [ 0, %17 ]
  ret i32 %.017
}